; ModuleID = 'source-C-CXX/45/3125.cpp'
source_filename = "source-C-CXX/45/3125.cpp"
target datalayout = "e-m:e-p270:32:32-p271:32:32-p272:64:64-i64:64-f80:128-n8:16:32:64-S128"
target triple = "x86_64-pc-linux-gnu"

%"class.std::ios_base::Init" = type { i8 }
%"class.std::basic_istream" = type { i32 (...)**, i64, %"class.std::basic_ios" }
%"class.std::basic_ios" = type { %"class.std::ios_base", %"class.std::basic_ostream"*, i8, i8, %"class.std::basic_streambuf"*, %"class.std::ctype"*, %"class.std::num_put"*, %"class.std::num_get"* }
%"class.std::ios_base" = type { i32 (...)**, i64, i64, i32, i32, i32, %"struct.std::ios_base::_Callback_list"*, %"struct.std::ios_base::_Words", [8 x %"struct.std::ios_base::_Words"], i32, %"struct.std::ios_base::_Words"*, %"class.std::locale" }
%"struct.std::ios_base::_Callback_list" = type { %"struct.std::ios_base::_Callback_list"*, void (i32, %"class.std::ios_base"*, i32)*, i32, i32 }
%"struct.std::ios_base::_Words" = type { i8*, i64 }
%"class.std::locale" = type { %"class.std::locale::_Impl"* }
%"class.std::locale::_Impl" = type { i32, %"class.std::locale::facet"**, i64, %"class.std::locale::facet"**, i8** }
%"class.std::locale::facet" = type <{ i32 (...)**, i32, [4 x i8] }>
%"class.std::basic_ostream" = type { i32 (...)**, %"class.std::basic_ios" }
%"class.std::basic_streambuf" = type { i32 (...)**, i8*, i8*, i8*, i8*, i8*, i8*, %"class.std::locale" }
%"class.std::ctype" = type <{ %"class.std::locale::facet.base", [4 x i8], %struct.__locale_struct*, i8, [7 x i8], i32*, i32*, i16*, i8, [256 x i8], [256 x i8], i8, [6 x i8] }>
%"class.std::locale::facet.base" = type <{ i32 (...)**, i32 }>
%struct.__locale_struct = type { [13 x %struct.__locale_data*], i16*, i32*, i32*, [13 x i8*] }
%struct.__locale_data = type opaque
%"class.std::num_put" = type { %"class.std::locale::facet.base", [4 x i8] }
%"class.std::num_get" = type { %"class.std::locale::facet.base", [4 x i8] }

@_ZStL8__ioinit = internal global %"class.std::ios_base::Init" zeroinitializer, align 1
@__dso_handle = external hidden global i8
@n = dso_local global i32 0, align 4
@m = dso_local global i32 0, align 4
@a = dso_local global [110 x [110 x i32]] zeroinitializer, align 16
@v = dso_local local_unnamed_addr global [110 x [110 x i32]] zeroinitializer, align 16
@_ZSt3cin = external global %"class.std::basic_istream", align 8
@_ZSt4cout = external global %"class.std::basic_ostream", align 8
@_ZL2dx = internal unnamed_addr constant [4 x i32] [i32 0, i32 1, i32 0, i32 -1], align 16
@_ZL2dy = internal unnamed_addr constant [4 x i32] [i32 1, i32 0, i32 -1, i32 0], align 16
@llvm.global_ctors = appending global [1 x { i32, void ()*, i8* }] [{ i32, void ()*, i8* } { i32 65535, void ()* @_GLOBAL__sub_I_3125.cpp, i8* null }]

declare void @_ZNSt8ios_base4InitC1Ev(%"class.std::ios_base::Init"* nonnull align 1 dereferenceable(1)) unnamed_addr #0

; Function Attrs: nounwind
declare void @_ZNSt8ios_base4InitD1Ev(%"class.std::ios_base::Init"* nonnull align 1 dereferenceable(1)) unnamed_addr #1

; Function Attrs: nofree nounwind
declare i32 @__cxa_atexit(void (i8*)*, i8*, i8*) local_unnamed_addr #2

; Function Attrs: mustprogress norecurse sspstrong uwtable
define dso_local i32 @main() local_unnamed_addr #3 {
  %1 = tail call nonnull align 8 dereferenceable(16) %"class.std::basic_istream"* @_ZNSirsERi(%"class.std::basic_istream"* nonnull align 8 dereferenceable(16) @_ZSt3cin, i32* nonnull align 4 dereferenceable(4) @n)
  %2 = tail call nonnull align 8 dereferenceable(16) %"class.std::basic_istream"* @_ZNSirsERi(%"class.std::basic_istream"* nonnull align 8 dereferenceable(16) %1, i32* nonnull align 4 dereferenceable(4) @m)
  %3 = load i32, i32* @n, align 4, !tbaa !5
  %4 = icmp sgt i32 %3, 0
  %5 = load i32, i32* @m, align 4, !tbaa !5
  %6 = icmp sgt i32 %5, 0
  %7 = select i1 %4, i1 %6, i1 false
  br i1 %7, label %8, label %13

8:                                                ; preds = %0, %20
  %9 = phi i32 [ %21, %20 ], [ %3, %0 ]
  %10 = phi i32 [ %22, %20 ], [ %5, %0 ]
  %11 = phi i64 [ %23, %20 ], [ 0, %0 ]
  %12 = icmp sgt i32 %10, 0
  br i1 %12, label %26, label %20

13:                                               ; preds = %20, %0
  %14 = phi i32 [ %5, %0 ], [ %22, %20 ]
  %15 = phi i32 [ %3, %0 ], [ %21, %20 ]
  %16 = mul nsw i32 %14, %15
  %17 = icmp sgt i32 %16, 0
  br i1 %17, label %34, label %118

18:                                               ; preds = %26
  %19 = load i32, i32* @n, align 4, !tbaa !5
  br label %20

20:                                               ; preds = %18, %8
  %21 = phi i32 [ %19, %18 ], [ %9, %8 ]
  %22 = phi i32 [ %31, %18 ], [ %10, %8 ]
  %23 = add nuw nsw i64 %11, 1
  %24 = sext i32 %21 to i64
  %25 = icmp slt i64 %23, %24
  br i1 %25, label %8, label %13, !llvm.loop !9

26:                                               ; preds = %8, %26
  %27 = phi i64 [ %30, %26 ], [ 0, %8 ]
  %28 = getelementptr inbounds [110 x [110 x i32]], [110 x [110 x i32]]* @a, i64 0, i64 %11, i64 %27
  %29 = tail call nonnull align 8 dereferenceable(16) %"class.std::basic_istream"* @_ZNSirsERi(%"class.std::basic_istream"* nonnull align 8 dereferenceable(16) @_ZSt3cin, i32* nonnull align 4 dereferenceable(4) %28)
  %30 = add nuw nsw i64 %27, 1
  %31 = load i32, i32* @m, align 4, !tbaa !5
  %32 = sext i32 %31 to i64
  %33 = icmp slt i64 %30, %32
  br i1 %33, label %26, label %18, !llvm.loop !12

34:                                               ; preds = %13, %106
  %35 = phi i32 [ %108, %106 ], [ 0, %13 ]
  %36 = phi i32 [ %39, %106 ], [ 0, %13 ]
  %37 = phi i32 [ %115, %106 ], [ 0, %13 ]
  %38 = phi i32 [ %112, %106 ], [ 0, %13 ]
  %39 = add nuw nsw i32 %36, 1
  %40 = sext i32 %38 to i64
  %41 = sext i32 %37 to i64
  %42 = getelementptr inbounds [110 x [110 x i32]], [110 x [110 x i32]]* @v, i64 0, i64 %40, i64 %41
  store i32 1, i32* %42, align 4, !tbaa !5
  %43 = getelementptr inbounds [110 x [110 x i32]], [110 x [110 x i32]]* @a, i64 0, i64 %40, i64 %41
  %44 = load i32, i32* %43, align 4, !tbaa !5
  %45 = tail call nonnull align 8 dereferenceable(8) %"class.std::basic_ostream"* @_ZNSolsEi(%"class.std::basic_ostream"* nonnull align 8 dereferenceable(8) @_ZSt4cout, i32 %44)
  %46 = bitcast %"class.std::basic_ostream"* %45 to i8**
  %47 = load i8*, i8** %46, align 8, !tbaa !13
  %48 = getelementptr i8, i8* %47, i64 -24
  %49 = bitcast i8* %48 to i64*
  %50 = load i64, i64* %49, align 8
  %51 = bitcast %"class.std::basic_ostream"* %45 to i8*
  %52 = add nsw i64 %50, 240
  %53 = getelementptr inbounds i8, i8* %51, i64 %52
  %54 = bitcast i8* %53 to %"class.std::ctype"**
  %55 = load %"class.std::ctype"*, %"class.std::ctype"** %54, align 8, !tbaa !15
  %56 = icmp eq %"class.std::ctype"* %55, null
  br i1 %56, label %57, label %58

57:                                               ; preds = %34
  tail call void @_ZSt16__throw_bad_castv() #6
  unreachable

58:                                               ; preds = %34
  %59 = getelementptr inbounds %"class.std::ctype", %"class.std::ctype"* %55, i64 0, i32 8
  %60 = load i8, i8* %59, align 8, !tbaa !19
  %61 = icmp eq i8 %60, 0
  br i1 %61, label %65, label %62

62:                                               ; preds = %58
  %63 = getelementptr inbounds %"class.std::ctype", %"class.std::ctype"* %55, i64 0, i32 9, i64 10
  %64 = load i8, i8* %63, align 1, !tbaa !21
  br label %71

65:                                               ; preds = %58
  tail call void @_ZNKSt5ctypeIcE13_M_widen_initEv(%"class.std::ctype"* nonnull align 8 dereferenceable(570) %55)
  %66 = bitcast %"class.std::ctype"* %55 to i8 (%"class.std::ctype"*, i8)***
  %67 = load i8 (%"class.std::ctype"*, i8)**, i8 (%"class.std::ctype"*, i8)*** %66, align 8, !tbaa !13
  %68 = getelementptr inbounds i8 (%"class.std::ctype"*, i8)*, i8 (%"class.std::ctype"*, i8)** %67, i64 6
  %69 = load i8 (%"class.std::ctype"*, i8)*, i8 (%"class.std::ctype"*, i8)** %68, align 8
  %70 = tail call signext i8 %69(%"class.std::ctype"* nonnull align 8 dereferenceable(570) %55, i8 signext 10)
  br label %71

71:                                               ; preds = %62, %65
  %72 = phi i8 [ %64, %62 ], [ %70, %65 ]
  %73 = tail call nonnull align 8 dereferenceable(8) %"class.std::basic_ostream"* @_ZNSo3putEc(%"class.std::basic_ostream"* nonnull align 8 dereferenceable(8) %45, i8 signext %72)
  %74 = tail call nonnull align 8 dereferenceable(8) %"class.std::basic_ostream"* @_ZNSo5flushEv(%"class.std::basic_ostream"* nonnull align 8 dereferenceable(8) %73)
  %75 = sext i32 %35 to i64
  %76 = getelementptr inbounds [4 x i32], [4 x i32]* @_ZL2dx, i64 0, i64 %75
  %77 = load i32, i32* %76, align 4, !tbaa !5
  %78 = add nsw i32 %77, %38
  %79 = icmp sgt i32 %78, -1
  %80 = load i32, i32* @n, align 4
  %81 = icmp slt i32 %78, %80
  %82 = select i1 %79, i1 %81, i1 false
  br i1 %82, label %85, label %83

83:                                               ; preds = %71
  %84 = load i32, i32* @m, align 4, !tbaa !5
  br label %93

85:                                               ; preds = %71
  %86 = getelementptr inbounds [4 x i32], [4 x i32]* @_ZL2dy, i64 0, i64 %75
  %87 = load i32, i32* %86, align 4, !tbaa !5
  %88 = add nsw i32 %87, %37
  %89 = icmp sgt i32 %88, -1
  %90 = load i32, i32* @m, align 4
  %91 = icmp slt i32 %88, %90
  %92 = select i1 %89, i1 %91, i1 false
  br i1 %92, label %97, label %93

93:                                               ; preds = %83, %85
  %94 = phi i32 [ %84, %83 ], [ %90, %85 ]
  %95 = add nsw i32 %35, 1
  %96 = srem i32 %95, 4
  br label %106

97:                                               ; preds = %85
  %98 = zext i32 %78 to i64
  %99 = zext i32 %88 to i64
  %100 = getelementptr inbounds [110 x [110 x i32]], [110 x [110 x i32]]* @v, i64 0, i64 %98, i64 %99
  %101 = load i32, i32* %100, align 4, !tbaa !5
  %102 = icmp eq i32 %101, 1
  br i1 %102, label %103, label %106

103:                                              ; preds = %97
  %104 = add nsw i32 %35, 1
  %105 = srem i32 %104, 4
  br label %106

106:                                              ; preds = %97, %103, %93
  %107 = phi i32 [ %94, %93 ], [ %90, %103 ], [ %90, %97 ]
  %108 = phi i32 [ %96, %93 ], [ %105, %103 ], [ %35, %97 ]
  %109 = sext i32 %108 to i64
  %110 = getelementptr inbounds [4 x i32], [4 x i32]* @_ZL2dx, i64 0, i64 %109
  %111 = load i32, i32* %110, align 4, !tbaa !5
  %112 = add nsw i32 %111, %38
  %113 = getelementptr inbounds [4 x i32], [4 x i32]* @_ZL2dy, i64 0, i64 %109
  %114 = load i32, i32* %113, align 4, !tbaa !5
  %115 = add nsw i32 %114, %37
  %116 = mul nsw i32 %107, %80
  %117 = icmp slt i32 %39, %116
  br i1 %117, label %34, label %118, !llvm.loop !22

118:                                              ; preds = %106, %13
  ret i32 0
}

declare nonnull align 8 dereferenceable(16) %"class.std::basic_istream"* @_ZNSirsERi(%"class.std::basic_istream"* nonnull align 8 dereferenceable(16), i32* nonnull align 4 dereferenceable(4)) local_unnamed_addr #0

declare nonnull align 8 dereferenceable(8) %"class.std::basic_ostream"* @_ZNSolsEi(%"class.std::basic_ostream"* nonnull align 8 dereferenceable(8), i32) local_unnamed_addr #0

declare nonnull align 8 dereferenceable(8) %"class.std::basic_ostream"* @_ZNSo3putEc(%"class.std::basic_ostream"* nonnull align 8 dereferenceable(8), i8 signext) local_unnamed_addr #0

declare nonnull align 8 dereferenceable(8) %"class.std::basic_ostream"* @_ZNSo5flushEv(%"class.std::basic_ostream"* nonnull align 8 dereferenceable(8)) local_unnamed_addr #0

; Function Attrs: noreturn
declare void @_ZSt16__throw_bad_castv() local_unnamed_addr #4

declare void @_ZNKSt5ctypeIcE13_M_widen_initEv(%"class.std::ctype"* nonnull align 8 dereferenceable(570)) local_unnamed_addr #0

; Function Attrs: sspstrong uwtable
define internal void @_GLOBAL__sub_I_3125.cpp() #5 section ".text.startup" {
  tail call void @_ZNSt8ios_base4InitC1Ev(%"class.std::ios_base::Init"* nonnull align 1 dereferenceable(1) @_ZStL8__ioinit)
  %1 = tail call i32 @__cxa_atexit(void (i8*)* bitcast (void (%"class.std::ios_base::Init"*)* @_ZNSt8ios_base4InitD1Ev to void (i8*)*), i8* getelementptr inbounds (%"class.std::ios_base::Init", %"class.std::ios_base::Init"* @_ZStL8__ioinit, i64 0, i32 0), i8* nonnull @__dso_handle) #7
  ret void
}


!llvm.module.flags = !{!0, !1, !2, !3}
!llvm.ident = !{!4}

!0 = !{i32 1, !"wchar_size", i32 4}
!1 = !{i32 7, !"PIC Level", i32 2}
!2 = !{i32 7, !"PIE Level", i32 2}
!3 = !{i32 7, !"uwtable", i32 1}
!4 = !{!"clang version 13.0.0"}
!5 = !{!6, !6, i64 0}
!6 = !{!"int", !7, i64 0}
!7 = !{!"omnipotent char", !8, i64 0}
!8 = !{!"Simple C++ TBAA"}
!9 = distinct !{!9, !10, !11}
!10 = !{!"llvm.loop.mustprogress"}
!11 = !{!"llvm.loop.unswitch.partial.disable"}
!12 = distinct !{!12, !10}
!13 = !{!14, !14, i64 0}
!14 = !{!"vtable pointer", !8, i64 0}
!15 = !{!16, !17, i64 240}
!16 = !{!"_ZTSSt9basic_iosIcSt11char_traitsIcEE", !17, i64 216, !7, i64 224, !18, i64 225, !17, i64 232, !17, i64 240, !17, i64 248, !17, i64 256}
!17 = !{!"any pointer", !7, i64 0}
!18 = !{!"bool", !7, i64 0}
!19 = !{!20, !7, i64 56}
!20 = !{!"_ZTSSt5ctypeIcE", !17, i64 16, !18, i64 24, !17, i64 32, !17, i64 40, !17, i64 48, !7, i64 56, !7, i64 57, !7, i64 313, !7, i64 569}
!21 = !{!7, !7, i64 0}
!22 = distinct !{!22, !10}
